; Function Attrs: mustprogress nofree norecurse nosync nounwind willreturn memory(none) uwtable
define dso_local noundef zeroext i1 @_ZN4llvm3X865isFLDEj(i32 noundef %0) local_unnamed_addr #0 {
  %switch.tableidx = add i32 %0, -2077
  %2 = icmp ult i32 %switch.tableidx, 16
  %switch.cast = trunc i32 %switch.tableidx to i16
  %switch.downshift = lshr i16 -32761, %switch.cast
  %switch.masked = trunc i16 %switch.downshift to i1
  %.0 = select i1 %2, i1 %switch.masked, i1 false
  ret i1 %.0
}